target datalayout = "e-m:e-p270:32:32-p271:32:32-p272:64:64-i64:64-i128:128-f80:128-n8:16:32:64-S128"
target triple = "x86_64-pc-linux-gnu"

%struct.HASHCTL = type { i64, i64, i64, i64, i64, i64, ptr, ptr, ptr, ptr, ptr, ptr }
%struct.GISTBuildBuffers = type { ptr, ptr, i64, ptr, i32, i32, ptr, ptr, i32, i32, ptr, i32, ptr, i32, i32, i32 }

@CurrentMemoryContext = external global ptr, align 8
@.str = private unnamed_addr constant [17 x i8] c"gistbuildbuffers\00", align 1

; Function Attrs: nounwind uwtable
define dso_local ptr @gistInitBuildBuffers(i32 noundef %0, i32 noundef %1, i32 noundef %2) #0 {
  %4 = alloca i32, align 4
  %5 = alloca i32, align 4
  %6 = alloca i32, align 4
  %7 = alloca ptr, align 8
  %8 = alloca %struct.HASHCTL, align 8
  store i32 %0, ptr %4, align 4
  store i32 %1, ptr %5, align 4
  store i32 %2, ptr %6, align 4
  call void @llvm.lifetime.start.p0(i64 8, ptr %7) #7
  call void @llvm.lifetime.start.p0(i64 96, ptr %8) #7
  %9 = call ptr @palloc(i64 noundef 104)
  store ptr %9, ptr %7, align 8
  %10 = load i32, ptr %4, align 4
  %11 = load ptr, ptr %7, align 8
  %12 = getelementptr inbounds nuw %struct.GISTBuildBuffers, ptr %11, i32 0, i32 9
  store i32 %10, ptr %12, align 4
  %13 = load i32, ptr %5, align 4
  %14 = load ptr, ptr %7, align 8
  %15 = getelementptr inbounds nuw %struct.GISTBuildBuffers, ptr %14, i32 0, i32 8
  store i32 %13, ptr %15, align 8
  %16 = call ptr @BufFileCreateTemp(i1 noundef zeroext false)
  %17 = load ptr, ptr %7, align 8
  %18 = getelementptr inbounds nuw %struct.GISTBuildBuffers, ptr %17, i32 0, i32 1
  store ptr %16, ptr %18, align 8
  %19 = load ptr, ptr %7, align 8
  %20 = getelementptr inbounds nuw %struct.GISTBuildBuffers, ptr %19, i32 0, i32 2
  store i64 0, ptr %20, align 8
  %21 = load ptr, ptr %7, align 8
  %22 = getelementptr inbounds nuw %struct.GISTBuildBuffers, ptr %21, i32 0, i32 4
  store i32 0, ptr %22, align 8
  %23 = load ptr, ptr %7, align 8
  %24 = getelementptr inbounds nuw %struct.GISTBuildBuffers, ptr %23, i32 0, i32 5
  store i32 32, ptr %24, align 4
  %25 = load ptr, ptr %7, align 8
  %26 = getelementptr inbounds nuw %struct.GISTBuildBuffers, ptr %25, i32 0, i32 5
  %27 = load i32, ptr %26, align 4
  %28 = sext i32 %27 to i64
  %29 = mul i64 %28, 8
  %30 = call ptr @palloc(i64 noundef %29)
  %31 = load ptr, ptr %7, align 8
  %32 = getelementptr inbounds nuw %struct.GISTBuildBuffers, ptr %31, i32 0, i32 3
  store ptr %30, ptr %32, align 8
  %33 = load ptr, ptr @CurrentMemoryContext, align 8
  %34 = load ptr, ptr %7, align 8
  %35 = getelementptr inbounds nuw %struct.GISTBuildBuffers, ptr %34, i32 0, i32 0
  store ptr %33, ptr %35, align 8
  %36 = getelementptr inbounds nuw %struct.HASHCTL, ptr %8, i32 0, i32 4
  store i64 4, ptr %36, align 8
  %37 = getelementptr inbounds nuw %struct.HASHCTL, ptr %8, i32 0, i32 5
  store i64 32, ptr %37, align 8
  %38 = load ptr, ptr @CurrentMemoryContext, align 8
  %39 = getelementptr inbounds nuw %struct.HASHCTL, ptr %8, i32 0, i32 10
  store ptr %38, ptr %39, align 8
  %40 = call ptr @hash_create(ptr noundef @.str, i64 noundef 1024, ptr noundef %8, i32 noundef 1064)
  %41 = load ptr, ptr %7, align 8
  %42 = getelementptr inbounds nuw %struct.GISTBuildBuffers, ptr %41, i32 0, i32 6
  store ptr %40, ptr %42, align 8
  %43 = load ptr, ptr %7, align 8
  %44 = getelementptr inbounds nuw %struct.GISTBuildBuffers, ptr %43, i32 0, i32 7
  store ptr null, ptr %44, align 8
  %45 = load ptr, ptr %7, align 8
  %46 = getelementptr inbounds nuw %struct.GISTBuildBuffers, ptr %45, i32 0, i32 11
  store i32 1, ptr %46, align 8
  %47 = load ptr, ptr %7, align 8
  %48 = getelementptr inbounds nuw %struct.GISTBuildBuffers, ptr %47, i32 0, i32 11
  %49 = load i32, ptr %48, align 8
  %50 = sext i32 %49 to i64
  %51 = mul i64 8, %50
  %52 = call ptr @palloc(i64 noundef %51)
  %53 = load ptr, ptr %7, align 8
  %54 = getelementptr inbounds nuw %struct.GISTBuildBuffers, ptr %53, i32 0, i32 10
  store ptr %52, ptr %54, align 8
  %55 = load ptr, ptr %7, align 8
  %56 = getelementptr inbounds nuw %struct.GISTBuildBuffers, ptr %55, i32 0, i32 10
  %57 = load ptr, ptr %56, align 8
  %58 = getelementptr inbounds ptr, ptr %57, i64 0
  store ptr null, ptr %58, align 8
  %59 = load ptr, ptr %7, align 8
  %60 = getelementptr inbounds nuw %struct.GISTBuildBuffers, ptr %59, i32 0, i32 14
  store i32 32, ptr %60, align 4
  %61 = load ptr, ptr %7, align 8
  %62 = getelementptr inbounds nuw %struct.GISTBuildBuffers, ptr %61, i32 0, i32 14
  %63 = load i32, ptr %62, align 4
  %64 = sext i32 %63 to i64
  %65 = mul i64 %64, 8
  %66 = call ptr @palloc(i64 noundef %65)
  %67 = load ptr, ptr %7, align 8
  %68 = getelementptr inbounds nuw %struct.GISTBuildBuffers, ptr %67, i32 0, i32 12
  store ptr %66, ptr %68, align 8
  %69 = load ptr, ptr %7, align 8
  %70 = getelementptr inbounds nuw %struct.GISTBuildBuffers, ptr %69, i32 0, i32 13
  store i32 0, ptr %70, align 8
  %71 = load i32, ptr %6, align 4
  %72 = load ptr, ptr %7, align 8
  %73 = getelementptr inbounds nuw %struct.GISTBuildBuffers, ptr %72, i32 0, i32 15
  store i32 %71, ptr %73, align 8
  %74 = load ptr, ptr %7, align 8
  call void @llvm.lifetime.end.p0(i64 96, ptr %8) #7
  call void @llvm.lifetime.end.p0(i64 8, ptr %7) #7
  ret ptr %74
}