; Function Attrs: nounwind uwtable
define dso_local ptr @gistInitBuildBuffers(i32 noundef %0, i32 noundef %1, i32 noundef %2) local_unnamed_addr #0 {
  %4 = alloca %struct.HASHCTL, align 8
  call void @llvm.lifetime.start.p0(i64 96, ptr nonnull %4) #6
  %5 = tail call ptr @palloc(i64 noundef 104) #6
  %6 = getelementptr inbounds nuw i8, ptr %5, i64 60
  store i32 %0, ptr %6, align 4
  %7 = getelementptr inbounds nuw i8, ptr %5, i64 56
  store i32 %1, ptr %7, align 8
  %8 = tail call ptr @BufFileCreateTemp(i1 noundef zeroext false) #6
  %9 = getelementptr inbounds nuw i8, ptr %5, i64 8
  store ptr %8, ptr %9, align 8
  %10 = getelementptr inbounds nuw i8, ptr %5, i64 16
  store i64 0, ptr %10, align 8
  %11 = getelementptr inbounds nuw i8, ptr %5, i64 32
  store i32 0, ptr %11, align 8
  %12 = getelementptr inbounds nuw i8, ptr %5, i64 36
  store i32 32, ptr %12, align 4
  %13 = tail call ptr @palloc(i64 noundef 256) #6
  %14 = getelementptr inbounds nuw i8, ptr %5, i64 24
  store ptr %13, ptr %14, align 8
  %15 = load ptr, ptr @CurrentMemoryContext, align 8
  store ptr %15, ptr %5, align 8
  %16 = getelementptr inbounds nuw i8, ptr %4, i64 32
  store i64 4, ptr %16, align 8
  %17 = getelementptr inbounds nuw i8, ptr %4, i64 40
  store i64 32, ptr %17, align 8
  %18 = getelementptr inbounds nuw i8, ptr %4, i64 80
  store ptr %15, ptr %18, align 8
  %19 = call ptr @hash_create(ptr noundef nonnull @.str, i64 noundef 1024, ptr noundef nonnull %4, i32 noundef 1064) #6
  %20 = getelementptr inbounds nuw i8, ptr %5, i64 40
  store ptr %19, ptr %20, align 8
  %21 = getelementptr inbounds nuw i8, ptr %5, i64 48
  store ptr null, ptr %21, align 8
  %22 = getelementptr inbounds nuw i8, ptr %5, i64 72
  store i32 1, ptr %22, align 8
  %23 = call ptr @palloc(i64 noundef 8) #6
  %24 = getelementptr inbounds nuw i8, ptr %5, i64 64
  store ptr %23, ptr %24, align 8
  store ptr null, ptr %23, align 8
  %25 = getelementptr inbounds nuw i8, ptr %5, i64 92
  store i32 32, ptr %25, align 4
  %26 = call ptr @palloc(i64 noundef 256) #6
  %27 = getelementptr inbounds nuw i8, ptr %5, i64 80
  store ptr %26, ptr %27, align 8
  %28 = getelementptr inbounds nuw i8, ptr %5, i64 88
  store i32 0, ptr %28, align 8
  %29 = getelementptr inbounds nuw i8, ptr %5, i64 96
  store i32 %2, ptr %29, align 8
  call void @llvm.lifetime.end.p0(i64 96, ptr nonnull %4) #6
  ret ptr %5
}